target datalayout = "e-m:e-p270:32:32-p271:32:32-p272:64:64-i64:64-i128:128-f80:128-n8:16:32:64-S128"
target triple = "x86_64-pc-linux-gnu"

%"struct.Luau::CodeGen::A64::RegisterA64" = type { i8 }
%"struct.Luau::CodeGen::A64::IrLoweringA64" = type <{ ptr, ptr, ptr, ptr, %"struct.Luau::CodeGen::A64::IrRegAllocA64", %"struct.Luau::CodeGen::IrValueLocationTracking", %"class.std::vector.0", %"class.std::vector.5", %"class.Luau::DenseHashMap", i8, [7 x i8] }>
%"struct.Luau::CodeGen::A64::IrRegAllocA64" = type <{ ptr, ptr, %"struct.Luau::CodeGen::A64::IrRegAllocA64::Set", %"struct.Luau::CodeGen::A64::IrRegAllocA64::Set", %"class.std::vector", i32, i8, [3 x i8] }>
%"struct.Luau::CodeGen::A64::IrRegAllocA64::Set" = type { i32, i32, i32, [32 x i32] }
%"class.std::vector" = type { %"struct.std::_Vector_base" }
%"struct.std::_Vector_base" = type { %"struct.std::_Vector_base<Luau::CodeGen::A64::IrRegAllocA64::Spill, std::allocator<Luau::CodeGen::A64::IrRegAllocA64::Spill>>::_Vector_impl" }
%"struct.std::_Vector_base<Luau::CodeGen::A64::IrRegAllocA64::Spill, std::allocator<Luau::CodeGen::A64::IrRegAllocA64::Spill>>::_Vector_impl" = type { %"struct.std::_Vector_base<Luau::CodeGen::A64::IrRegAllocA64::Spill, std::allocator<Luau::CodeGen::A64::IrRegAllocA64::Spill>>::_Vector_impl_data" }
%"struct.std::_Vector_base<Luau::CodeGen::A64::IrRegAllocA64::Spill, std::allocator<Luau::CodeGen::A64::IrRegAllocA64::Spill>>::_Vector_impl_data" = type { ptr, ptr, ptr }
%"struct.Luau::CodeGen::IrValueLocationTracking" = type { ptr, %"struct.std::array", i32, ptr, ptr }
%"struct.std::array" = type { [256 x i32] }
%"class.std::vector.0" = type { %"struct.std::_Vector_base.1" }
%"struct.std::_Vector_base.1" = type { %"struct.std::_Vector_base<Luau::CodeGen::A64::IrLoweringA64::InterruptHandler, std::allocator<Luau::CodeGen::A64::IrLoweringA64::InterruptHandler>>::_Vector_impl" }
%"struct.std::_Vector_base<Luau::CodeGen::A64::IrLoweringA64::InterruptHandler, std::allocator<Luau::CodeGen::A64::IrLoweringA64::InterruptHandler>>::_Vector_impl" = type { %"struct.std::_Vector_base<Luau::CodeGen::A64::IrLoweringA64::InterruptHandler, std::allocator<Luau::CodeGen::A64::IrLoweringA64::InterruptHandler>>::_Vector_impl_data" }
%"struct.std::_Vector_base<Luau::CodeGen::A64::IrLoweringA64::InterruptHandler, std::allocator<Luau::CodeGen::A64::IrLoweringA64::InterruptHandler>>::_Vector_impl_data" = type { ptr, ptr, ptr }
%"class.std::vector.5" = type { %"struct.std::_Vector_base.6" }
%"struct.std::_Vector_base.6" = type { %"struct.std::_Vector_base<Luau::CodeGen::A64::IrLoweringA64::ExitHandler, std::allocator<Luau::CodeGen::A64::IrLoweringA64::ExitHandler>>::_Vector_impl" }
%"struct.std::_Vector_base<Luau::CodeGen::A64::IrLoweringA64::ExitHandler, std::allocator<Luau::CodeGen::A64::IrLoweringA64::ExitHandler>>::_Vector_impl" = type { %"struct.std::_Vector_base<Luau::CodeGen::A64::IrLoweringA64::ExitHandler, std::allocator<Luau::CodeGen::A64::IrLoweringA64::ExitHandler>>::_Vector_impl_data" }
%"struct.std::_Vector_base<Luau::CodeGen::A64::IrLoweringA64::ExitHandler, std::allocator<Luau::CodeGen::A64::IrLoweringA64::ExitHandler>>::_Vector_impl_data" = type { ptr, ptr, ptr }
%"class.Luau::DenseHashMap" = type { %"class.Luau::detail::DenseHashTable" }
%"class.Luau::detail::DenseHashTable" = type <{ ptr, i64, i64, i32, [4 x i8] }>
%"struct.Luau::CodeGen::IrOp" = type { i32 }
%"struct.Luau::CodeGen::IrConst" = type { i8, %union.anon.80 }
%union.anon.80 = type { double }
%"struct.Luau::CodeGen::IrInst" = type <{ i8, [3 x i8], %"struct.Luau::CodeGen::IrOp", %"struct.Luau::CodeGen::IrOp", %"struct.Luau::CodeGen::IrOp", %"struct.Luau::CodeGen::IrOp", %"struct.Luau::CodeGen::IrOp", %"struct.Luau::CodeGen::IrOp", %"struct.Luau::CodeGen::IrOp", i32, i16, %"struct.Luau::CodeGen::X64::RegisterX64", %"struct.Luau::CodeGen::A64::RegisterA64", i8, i8, i8, i8 }>
%"struct.Luau::CodeGen::X64::RegisterX64" = type { i8 }
%"class.std::vector.10" = type { %"struct.std::_Vector_base.11" }
%"struct.std::_Vector_base.11" = type { %"struct.std::_Vector_base<unsigned char, std::allocator<unsigned char>>::_Vector_impl" }
%"struct.std::_Vector_base<unsigned char, std::allocator<unsigned char>>::_Vector_impl" = type { %"struct.std::_Vector_base<unsigned char, std::allocator<unsigned char>>::_Vector_impl_data" }
%"struct.std::_Vector_base<unsigned char, std::allocator<unsigned char>>::_Vector_impl_data" = type { ptr, ptr, ptr }
%"class.std::vector.15" = type { %"struct.std::_Vector_base.16" }
%"struct.std::_Vector_base.16" = type { %"struct.std::_Vector_base<unsigned int, std::allocator<unsigned int>>::_Vector_impl" }
%"struct.std::_Vector_base<unsigned int, std::allocator<unsigned int>>::_Vector_impl" = type { %"struct.std::_Vector_base<unsigned int, std::allocator<unsigned int>>::_Vector_impl_data" }
%"struct.std::_Vector_base<unsigned int, std::allocator<unsigned int>>::_Vector_impl_data" = type { ptr, ptr, ptr }
%"struct.Luau::CodeGen::IrFunction" = type { %"class.std::vector.28", %"class.std::vector.33", %"class.std::vector.38", %"class.std::vector.43", %"class.std::vector.48", %"class.std::vector.53", i32, i32, %"class.std::vector.58", %"class.std::vector.15", %"struct.Luau::CodeGen::BytecodeTypeInfo", ptr, i8, %"struct.Luau::CodeGen::CfgInfo", ptr }
%"class.std::vector.28" = type { %"struct.std::_Vector_base.29" }
%"struct.std::_Vector_base.29" = type { %"struct.std::_Vector_base<Luau::CodeGen::IrBlock, std::allocator<Luau::CodeGen::IrBlock>>::_Vector_impl" }
%"struct.std::_Vector_base<Luau::CodeGen::IrBlock, std::allocator<Luau::CodeGen::IrBlock>>::_Vector_impl" = type { %"struct.std::_Vector_base<Luau::CodeGen::IrBlock, std::allocator<Luau::CodeGen::IrBlock>>::_Vector_impl_data" }
%"struct.std::_Vector_base<Luau::CodeGen::IrBlock, std::allocator<Luau::CodeGen::IrBlock>>::_Vector_impl_data" = type { ptr, ptr, ptr }
%"class.std::vector.33" = type { %"struct.std::_Vector_base.34" }
%"struct.std::_Vector_base.34" = type { %"struct.std::_Vector_base<Luau::CodeGen::IrInst, std::allocator<Luau::CodeGen::IrInst>>::_Vector_impl" }
%"struct.std::_Vector_base<Luau::CodeGen::IrInst, std::allocator<Luau::CodeGen::IrInst>>::_Vector_impl" = type { %"struct.std::_Vector_base<Luau::CodeGen::IrInst, std::allocator<Luau::CodeGen::IrInst>>::_Vector_impl_data" }
%"struct.std::_Vector_base<Luau::CodeGen::IrInst, std::allocator<Luau::CodeGen::IrInst>>::_Vector_impl_data" = type { ptr, ptr, ptr }
%"class.std::vector.38" = type { %"struct.std::_Vector_base.39" }
%"struct.std::_Vector_base.39" = type { %"struct.std::_Vector_base<Luau::CodeGen::IrConst, std::allocator<Luau::CodeGen::IrConst>>::_Vector_impl" }
%"struct.std::_Vector_base<Luau::CodeGen::IrConst, std::allocator<Luau::CodeGen::IrConst>>::_Vector_impl" = type { %"struct.std::_Vector_base<Luau::CodeGen::IrConst, std::allocator<Luau::CodeGen::IrConst>>::_Vector_impl_data" }
%"struct.std::_Vector_base<Luau::CodeGen::IrConst, std::allocator<Luau::CodeGen::IrConst>>::_Vector_impl_data" = type { ptr, ptr, ptr }
%"class.std::vector.43" = type { %"struct.std::_Vector_base.44" }
%"struct.std::_Vector_base.44" = type { %"struct.std::_Vector_base<Luau::CodeGen::BytecodeBlock, std::allocator<Luau::CodeGen::BytecodeBlock>>::_Vector_impl" }
%"struct.std::_Vector_base<Luau::CodeGen::BytecodeBlock, std::allocator<Luau::CodeGen::BytecodeBlock>>::_Vector_impl" = type { %"struct.std::_Vector_base<Luau::CodeGen::BytecodeBlock, std::allocator<Luau::CodeGen::BytecodeBlock>>::_Vector_impl_data" }
%"struct.std::_Vector_base<Luau::CodeGen::BytecodeBlock, std::allocator<Luau::CodeGen::BytecodeBlock>>::_Vector_impl_data" = type { ptr, ptr, ptr }
%"class.std::vector.48" = type { %"struct.std::_Vector_base.49" }
%"struct.std::_Vector_base.49" = type { %"struct.std::_Vector_base<Luau::CodeGen::BytecodeTypes, std::allocator<Luau::CodeGen::BytecodeTypes>>::_Vector_impl" }
%"struct.std::_Vector_base<Luau::CodeGen::BytecodeTypes, std::allocator<Luau::CodeGen::BytecodeTypes>>::_Vector_impl" = type { %"struct.std::_Vector_base<Luau::CodeGen::BytecodeTypes, std::allocator<Luau::CodeGen::BytecodeTypes>>::_Vector_impl_data" }
%"struct.std::_Vector_base<Luau::CodeGen::BytecodeTypes, std::allocator<Luau::CodeGen::BytecodeTypes>>::_Vector_impl_data" = type { ptr, ptr, ptr }
%"class.std::vector.53" = type { %"struct.std::_Vector_base.54" }
%"struct.std::_Vector_base.54" = type { %"struct.std::_Vector_base<Luau::CodeGen::BytecodeMapping, std::allocator<Luau::CodeGen::BytecodeMapping>>::_Vector_impl" }
%"struct.std::_Vector_base<Luau::CodeGen::BytecodeMapping, std::allocator<Luau::CodeGen::BytecodeMapping>>::_Vector_impl" = type { %"struct.std::_Vector_base<Luau::CodeGen::BytecodeMapping, std::allocator<Luau::CodeGen::BytecodeMapping>>::_Vector_impl_data" }
%"struct.std::_Vector_base<Luau::CodeGen::BytecodeMapping, std::allocator<Luau::CodeGen::BytecodeMapping>>::_Vector_impl_data" = type { ptr, ptr, ptr }
%"class.std::vector.58" = type { %"struct.std::_Vector_base.59" }
%"struct.std::_Vector_base.59" = type { %"struct.std::_Vector_base<Luau::CodeGen::IrOp, std::allocator<Luau::CodeGen::IrOp>>::_Vector_impl" }
%"struct.std::_Vector_base<Luau::CodeGen::IrOp, std::allocator<Luau::CodeGen::IrOp>>::_Vector_impl" = type { %"struct.std::_Vector_base<Luau::CodeGen::IrOp, std::allocator<Luau::CodeGen::IrOp>>::_Vector_impl_data" }
%"struct.std::_Vector_base<Luau::CodeGen::IrOp, std::allocator<Luau::CodeGen::IrOp>>::_Vector_impl_data" = type { ptr, ptr, ptr }
%"struct.Luau::CodeGen::BytecodeTypeInfo" = type { %"class.std::vector.10", %"class.std::vector.63", %"class.std::vector.10", %"class.std::vector.15" }
%"class.std::vector.63" = type { %"struct.std::_Vector_base.64" }
%"struct.std::_Vector_base.64" = type { %"struct.std::_Vector_base<Luau::CodeGen::BytecodeRegTypeInfo, std::allocator<Luau::CodeGen::BytecodeRegTypeInfo>>::_Vector_impl" }
%"struct.std::_Vector_base<Luau::CodeGen::BytecodeRegTypeInfo, std::allocator<Luau::CodeGen::BytecodeRegTypeInfo>>::_Vector_impl" = type { %"struct.std::_Vector_base<Luau::CodeGen::BytecodeRegTypeInfo, std::allocator<Luau::CodeGen::BytecodeRegTypeInfo>>::_Vector_impl_data" }
%"struct.std::_Vector_base<Luau::CodeGen::BytecodeRegTypeInfo, std::allocator<Luau::CodeGen::BytecodeRegTypeInfo>>::_Vector_impl_data" = type { ptr, ptr, ptr }
%"struct.Luau::CodeGen::CfgInfo" = type { %"class.std::vector.15", %"class.std::vector.15", %"class.std::vector.15", %"class.std::vector.15", %"class.std::vector.15", %"class.std::vector.15", %"class.std::vector.15", %"class.std::vector.68", %"class.std::vector.73", %"class.std::vector.73", %"class.std::vector.73", %"struct.Luau::CodeGen::RegisterSet" }
%"class.std::vector.68" = type { %"struct.std::_Vector_base.69" }
%"struct.std::_Vector_base.69" = type { %"struct.std::_Vector_base<Luau::CodeGen::BlockOrdering, std::allocator<Luau::CodeGen::BlockOrdering>>::_Vector_impl" }
%"struct.std::_Vector_base<Luau::CodeGen::BlockOrdering, std::allocator<Luau::CodeGen::BlockOrdering>>::_Vector_impl" = type { %"struct.std::_Vector_base<Luau::CodeGen::BlockOrdering, std::allocator<Luau::CodeGen::BlockOrdering>>::_Vector_impl_data" }
%"struct.std::_Vector_base<Luau::CodeGen::BlockOrdering, std::allocator<Luau::CodeGen::BlockOrdering>>::_Vector_impl_data" = type { ptr, ptr, ptr }
%"class.std::vector.73" = type { %"struct.std::_Vector_base.74" }
%"struct.std::_Vector_base.74" = type { %"struct.std::_Vector_base<Luau::CodeGen::RegisterSet, std::allocator<Luau::CodeGen::RegisterSet>>::_Vector_impl" }
%"struct.std::_Vector_base<Luau::CodeGen::RegisterSet, std::allocator<Luau::CodeGen::RegisterSet>>::_Vector_impl" = type { %"struct.std::_Vector_base<Luau::CodeGen::RegisterSet, std::allocator<Luau::CodeGen::RegisterSet>>::_Vector_impl_data" }
%"struct.std::_Vector_base<Luau::CodeGen::RegisterSet, std::allocator<Luau::CodeGen::RegisterSet>>::_Vector_impl_data" = type { ptr, ptr, ptr }
%"struct.Luau::CodeGen::RegisterSet" = type <{ %"class.std::bitset", i8, i8, [6 x i8] }>
%"class.std::bitset" = type { %"struct.std::_Base_bitset" }
%"struct.std::_Base_bitset" = type { [4 x i64] }

@_ZN4Luau7CodeGen3A64L5noregE = internal constant %"struct.Luau::CodeGen::A64::RegisterA64" zeroinitializer, align 1

; Function Attrs: mustprogress nounwind uwtable
define linkonce_odr dso_local noundef nonnull align 8 dereferenceable(16) ptr @_ZNSt6vectorIN4Luau7CodeGen7IrConstESaIS2_EEixEm(ptr noundef nonnull align 8 dereferenceable(24) %0, i64 noundef %1) #2 comdat align 2 {
  %3 = alloca ptr, align 8
  %4 = alloca i64, align 8
  store ptr %0, ptr %3, align 8, !tbaa !294
  store i64 %1, ptr %4, align 8, !tbaa !65
  %5 = load ptr, ptr %3, align 8
  %6 = getelementptr inbounds nuw %"struct.std::_Vector_base.39", ptr %5, i32 0, i32 0
  %7 = getelementptr inbounds nuw %"struct.std::_Vector_base<Luau::CodeGen::IrConst, std::allocator<Luau::CodeGen::IrConst>>::_Vector_impl_data", ptr %6, i32 0, i32 0
  %8 = load ptr, ptr %7, align 8, !tbaa !296
  %9 = load i64, ptr %4, align 8, !tbaa !65
  %10 = getelementptr inbounds nuw %"struct.Luau::CodeGen::IrConst", ptr %8, i64 %9
  ret ptr %10
}

; Function Attrs: mustprogress nounwind uwtable
define linkonce_odr dso_local noundef nonnull align 8 dereferenceable(16) ptr @_ZN4Luau7CodeGen10IrFunction7constOpENS0_4IrOpE(ptr noundef nonnull align 8 dereferenceable(624) %0, i32 %1) #2 comdat align 2 {
  %3 = alloca %"struct.Luau::CodeGen::IrOp", align 4
  %4 = alloca ptr, align 8
  %5 = getelementptr inbounds nuw %"struct.Luau::CodeGen::IrOp", ptr %3, i32 0, i32 0
  store i32 %1, ptr %5, align 4
  store ptr %0, ptr %4, align 8, !tbaa !13
  %6 = load ptr, ptr %4, align 8
  %7 = getelementptr inbounds nuw %"struct.Luau::CodeGen::IrFunction", ptr %6, i32 0, i32 2
  %8 = load i32, ptr %3, align 4
  %9 = lshr i32 %8, 4
  %10 = zext i32 %9 to i64
  %11 = call noundef nonnull align 8 dereferenceable(16) ptr @_ZNSt6vectorIN4Luau7CodeGen7IrConstESaIS2_EEixEm(ptr noundef nonnull align 8 dereferenceable(24) %7, i64 noundef %10) #13
  ret ptr %11
}

; Function Attrs: mustprogress nounwind uwtable
define linkonce_odr dso_local noundef nonnull align 4 dereferenceable(43) ptr @_ZNSt6vectorIN4Luau7CodeGen6IrInstESaIS2_EEixEm(ptr noundef nonnull align 8 dereferenceable(24) %0, i64 noundef %1) #2 comdat align 2 {
  %3 = alloca ptr, align 8
  %4 = alloca i64, align 8
  store ptr %0, ptr %3, align 8, !tbaa !288
  store i64 %1, ptr %4, align 8, !tbaa !65
  %5 = load ptr, ptr %3, align 8
  %6 = getelementptr inbounds nuw %"struct.std::_Vector_base.34", ptr %5, i32 0, i32 0
  %7 = getelementptr inbounds nuw %"struct.std::_Vector_base<Luau::CodeGen::IrInst, std::allocator<Luau::CodeGen::IrInst>>::_Vector_impl_data", ptr %6, i32 0, i32 0
  %8 = load ptr, ptr %7, align 8, !tbaa !290
  %9 = load i64, ptr %4, align 8, !tbaa !65
  %10 = getelementptr inbounds nuw %"struct.Luau::CodeGen::IrInst", ptr %8, i64 %9
  ret ptr %10
}

; Function Attrs: mustprogress nounwind uwtable
define linkonce_odr dso_local noundef i32 @_ZN4Luau7CodeGen10IrFunction5intOpENS0_4IrOpE(ptr noundef nonnull align 8 dereferenceable(624) %0, i32 %1) #2 comdat align 2 {
  %3 = alloca %"struct.Luau::CodeGen::IrOp", align 4
  %4 = alloca ptr, align 8
  %5 = alloca ptr, align 8
  %6 = alloca %"struct.Luau::CodeGen::IrOp", align 4
  %7 = getelementptr inbounds nuw %"struct.Luau::CodeGen::IrOp", ptr %3, i32 0, i32 0
  store i32 %1, ptr %7, align 4
  store ptr %0, ptr %4, align 8, !tbaa !13
  %8 = load ptr, ptr %4, align 8
  call void @llvm.lifetime.start.p0(i64 8, ptr %5) #13
  call void @llvm.memcpy.p0.p0.i64(ptr align 4 %6, ptr align 4 %3, i64 4, i1 false), !tbaa.struct !87
  %9 = getelementptr inbounds nuw %"struct.Luau::CodeGen::IrOp", ptr %6, i32 0, i32 0
  %10 = load i32, ptr %9, align 4
  %11 = call noundef nonnull align 8 dereferenceable(16) ptr @_ZN4Luau7CodeGen10IrFunction7constOpENS0_4IrOpE(ptr noundef nonnull align 8 dereferenceable(624) %8, i32 %10)
  store ptr %11, ptr %5, align 8, !tbaa !250
  %12 = load ptr, ptr %5, align 8, !tbaa !250
  %13 = getelementptr inbounds nuw %"struct.Luau::CodeGen::IrConst", ptr %12, i32 0, i32 1
  %14 = load i32, ptr %13, align 8, !tbaa !56
  call void @llvm.lifetime.end.p0(i64 8, ptr %5) #13
  ret i32 %14
}

; Function Attrs: mustprogress nounwind uwtable
define linkonce_odr dso_local noundef nonnull align 4 dereferenceable(43) ptr @_ZN4Luau7CodeGen10IrFunction6instOpENS0_4IrOpE(ptr noundef nonnull align 8 dereferenceable(624) %0, i32 %1) #2 comdat align 2 {
  %3 = alloca %"struct.Luau::CodeGen::IrOp", align 4
  %4 = alloca ptr, align 8
  %5 = getelementptr inbounds nuw %"struct.Luau::CodeGen::IrOp", ptr %3, i32 0, i32 0
  store i32 %1, ptr %5, align 4
  store ptr %0, ptr %4, align 8, !tbaa !13
  %6 = load ptr, ptr %4, align 8
  %7 = getelementptr inbounds nuw %"struct.Luau::CodeGen::IrFunction", ptr %6, i32 0, i32 1
  %8 = load i32, ptr %3, align 4
  %9 = lshr i32 %8, 4
  %10 = zext i32 %9 to i64
  %11 = call noundef nonnull align 4 dereferenceable(43) ptr @_ZNSt6vectorIN4Luau7CodeGen6IrInstESaIS2_EEixEm(ptr noundef nonnull align 8 dereferenceable(24) %7, i64 noundef %10) #13
  ret ptr %11
}

; Function Attrs: mustprogress uwtable
define dso_local noundef i32 @_ZNK4Luau7CodeGen3A6413IrLoweringA645intOpENS0_4IrOpE(ptr noundef nonnull align 8 dereferenceable(1497) %0, i32 %1) #0 align 2 {
  %3 = alloca %"struct.Luau::CodeGen::IrOp", align 4
  %4 = alloca ptr, align 8
  %5 = alloca %"struct.Luau::CodeGen::IrOp", align 4
  %6 = getelementptr inbounds nuw %"struct.Luau::CodeGen::IrOp", ptr %3, i32 0, i32 0
  store i32 %1, ptr %6, align 4
  store ptr %0, ptr %4, align 8, !tbaa !4
  %7 = load ptr, ptr %4, align 8
  %8 = getelementptr inbounds nuw %"struct.Luau::CodeGen::A64::IrLoweringA64", ptr %7, i32 0, i32 2
  %9 = load ptr, ptr %8, align 8, !tbaa !123
  call void @llvm.memcpy.p0.p0.i64(ptr align 4 %5, ptr align 4 %3, i64 4, i1 false), !tbaa.struct !87
  %10 = getelementptr inbounds nuw %"struct.Luau::CodeGen::IrOp", ptr %5, i32 0, i32 0
  %11 = load i32, ptr %10, align 4
  %12 = call noundef i32 @_ZN4Luau7CodeGen10IrFunction5intOpENS0_4IrOpE(ptr noundef nonnull align 8 dereferenceable(624) %9, i32 %11)
  ret i32 %12
}

; Function Attrs: mustprogress uwtable
define dso_local i8 @_ZN4Luau7CodeGen3A6413IrLoweringA645regOpENS0_4IrOpE(ptr noundef nonnull align 8 dereferenceable(1497) %0, i32 %1) #0 align 2 {
  %3 = alloca %"struct.Luau::CodeGen::A64::RegisterA64", align 1
  %4 = alloca %"struct.Luau::CodeGen::IrOp", align 4
  %5 = alloca ptr, align 8
  %6 = alloca ptr, align 8
  %7 = alloca %"struct.Luau::CodeGen::IrOp", align 4
  %8 = getelementptr inbounds nuw %"struct.Luau::CodeGen::IrOp", ptr %4, i32 0, i32 0
  store i32 %1, ptr %8, align 4
  store ptr %0, ptr %5, align 8, !tbaa !4
  %9 = load ptr, ptr %5, align 8
  call void @llvm.lifetime.start.p0(i64 8, ptr %6) #13
  %10 = getelementptr inbounds nuw %"struct.Luau::CodeGen::A64::IrLoweringA64", ptr %9, i32 0, i32 2
  %11 = load ptr, ptr %10, align 8, !tbaa !123
  call void @llvm.memcpy.p0.p0.i64(ptr align 4 %7, ptr align 4 %4, i64 4, i1 false), !tbaa.struct !87
  %12 = getelementptr inbounds nuw %"struct.Luau::CodeGen::IrOp", ptr %7, i32 0, i32 0
  %13 = load i32, ptr %12, align 4
  %14 = call noundef nonnull align 4 dereferenceable(43) ptr @_ZN4Luau7CodeGen10IrFunction6instOpENS0_4IrOpE(ptr noundef nonnull align 8 dereferenceable(624) %11, i32 %13)
  store ptr %14, ptr %6, align 8, !tbaa !73
  %15 = load ptr, ptr %6, align 8, !tbaa !73
  %16 = getelementptr inbounds nuw %"struct.Luau::CodeGen::IrInst", ptr %15, i32 0, i32 14
  %17 = load i8, ptr %16, align 1, !tbaa !205, !range !124, !noundef !125
  %18 = trunc i8 %17 to i1
  br i1 %18, label %24, label %19

19:                                               ; preds = %2
  %20 = load ptr, ptr %6, align 8, !tbaa !73
  %21 = getelementptr inbounds nuw %"struct.Luau::CodeGen::IrInst", ptr %20, i32 0, i32 15
  %22 = load i8, ptr %21, align 2, !tbaa !206, !range !124, !noundef !125
  %23 = trunc i8 %22 to i1
  br i1 %23, label %24, label %29

24:                                               ; preds = %19, %2
  %25 = getelementptr inbounds nuw %"struct.Luau::CodeGen::A64::IrLoweringA64", ptr %9, i32 0, i32 4
  %26 = getelementptr inbounds nuw %"struct.Luau::CodeGen::A64::IrLoweringA64", ptr %9, i32 0, i32 0
  %27 = load ptr, ptr %26, align 8, !tbaa !88
  %28 = load ptr, ptr %6, align 8, !tbaa !73
  call void @_ZN4Luau7CodeGen3A6413IrRegAllocA6410restoreRegERNS1_18AssemblyBuilderA64ERNS0_6IrInstE(ptr noundef nonnull align 8 dereferenceable(325) %25, ptr noundef nonnull align 8 dereferenceable(176) %27, ptr noundef nonnull align 4 dereferenceable(43) %28)
  br label %29

29:                                               ; preds = %24, %19
  %30 = load ptr, ptr %6, align 8, !tbaa !73
  %31 = getelementptr inbounds nuw %"struct.Luau::CodeGen::IrInst", ptr %30, i32 0, i32 12
  call void @llvm.memcpy.p0.p0.i64(ptr align 1 %3, ptr align 1 %31, i64 1, i1 false), !tbaa.struct !55
  call void @llvm.lifetime.end.p0(i64 8, ptr %6) #13
  %32 = getelementptr inbounds nuw %"struct.Luau::CodeGen::A64::RegisterA64", ptr %3, i32 0, i32 0
  %33 = load i8, ptr %32, align 1
  ret i8 %33
}

; Function Attrs: mustprogress uwtable
define dso_local i8 @_ZN4Luau7CodeGen3A6413IrLoweringA647tempIntENS0_4IrOpE(ptr noundef nonnull align 8 dereferenceable(1497) %0, i32 %1) #0 align 2 {
  %3 = alloca %"struct.Luau::CodeGen::A64::RegisterA64", align 1
  %4 = alloca %"struct.Luau::CodeGen::IrOp", align 4
  %5 = alloca ptr, align 8
  %6 = alloca %"struct.Luau::CodeGen::IrOp", align 4
  %7 = alloca %"struct.Luau::CodeGen::A64::RegisterA64", align 1
  %8 = alloca %"struct.Luau::CodeGen::IrOp", align 4
  %9 = getelementptr inbounds nuw %"struct.Luau::CodeGen::IrOp", ptr %4, i32 0, i32 0
  store i32 %1, ptr %9, align 4
  store ptr %0, ptr %5, align 8, !tbaa !4
  %10 = load ptr, ptr %5, align 8
  %11 = load i32, ptr %4, align 4
  %12 = and i32 %11, 15
  %13 = icmp eq i32 %12, 4
  br i1 %13, label %14, label %19

14:                                               ; preds = %2
  call void @llvm.memcpy.p0.p0.i64(ptr align 4 %6, ptr align 4 %4, i64 4, i1 false), !tbaa.struct !87
  %15 = getelementptr inbounds nuw %"struct.Luau::CodeGen::IrOp", ptr %6, i32 0, i32 0
  %16 = load i32, ptr %15, align 4
  %17 = call i8 @_ZN4Luau7CodeGen3A6413IrLoweringA645regOpENS0_4IrOpE(ptr noundef nonnull align 8 dereferenceable(1497) %10, i32 %16)
  %18 = getelementptr inbounds nuw %"struct.Luau::CodeGen::A64::RegisterA64", ptr %3, i32 0, i32 0
  store i8 %17, ptr %18, align 1
  br label %35

19:                                               ; preds = %2
  %20 = load i32, ptr %4, align 4
  %21 = and i32 %20, 15
  %22 = icmp eq i32 %21, 2
  br i1 %22, label %23, label %34

23:                                               ; preds = %19
  %24 = getelementptr inbounds nuw %"struct.Luau::CodeGen::A64::IrLoweringA64", ptr %10, i32 0, i32 4
  %25 = call i8 @_ZN4Luau7CodeGen3A6413IrRegAllocA649allocTempENS1_7KindA64E(ptr noundef nonnull align 8 dereferenceable(325) %24, i8 noundef zeroext 1)
  %26 = getelementptr inbounds nuw %"struct.Luau::CodeGen::A64::RegisterA64", ptr %3, i32 0, i32 0
  store i8 %25, ptr %26, align 1
  %27 = getelementptr inbounds nuw %"struct.Luau::CodeGen::A64::IrLoweringA64", ptr %10, i32 0, i32 0
  %28 = load ptr, ptr %27, align 8, !tbaa !88
  call void @llvm.memcpy.p0.p0.i64(ptr align 1 %7, ptr align 1 %3, i64 1, i1 false), !tbaa.struct !55
  call void @llvm.memcpy.p0.p0.i64(ptr align 4 %8, ptr align 4 %4, i64 4, i1 false), !tbaa.struct !87
  %29 = getelementptr inbounds nuw %"struct.Luau::CodeGen::IrOp", ptr %8, i32 0, i32 0
  %30 = load i32, ptr %29, align 4
  %31 = call noundef i32 @_ZNK4Luau7CodeGen3A6413IrLoweringA645intOpENS0_4IrOpE(ptr noundef nonnull align 8 dereferenceable(1497) %10, i32 %30)
  %32 = getelementptr inbounds nuw %"struct.Luau::CodeGen::A64::RegisterA64", ptr %7, i32 0, i32 0
  %33 = load i8, ptr %32, align 1
  call void @_ZN4Luau7CodeGen3A6418AssemblyBuilderA643movENS1_11RegisterA64Ei(ptr noundef nonnull align 8 dereferenceable(176) %28, i8 %33, i32 noundef %31)
  br label %35

34:                                               ; preds = %19
  call void @llvm.memcpy.p0.p0.i64(ptr align 1 %3, ptr align 1 @_ZN4Luau7CodeGen3A64L5noregE, i64 1, i1 false), !tbaa.struct !55
  br label %35

35:                                               ; preds = %34, %23, %14
  %36 = getelementptr inbounds nuw %"struct.Luau::CodeGen::A64::RegisterA64", ptr %3, i32 0, i32 0
  %37 = load i8, ptr %36, align 1
  ret i8 %37
}