; Function Attrs: mustprogress uwtable
define dso_local i8 @_ZN4Luau7CodeGen3A6413IrLoweringA647tempIntENS0_4IrOpE(ptr noundef nonnull align 8 dereferenceable(1497) %0, i32 %1) local_unnamed_addr #0 align 2 {
  %3 = and i32 %1, 15
  switch i32 %3, label %35 [
    i32 4, label %4
    i32 2, label %23
  ]

4:                                                ; preds = %2
  %5 = getelementptr inbounds nuw i8, ptr %0, i64 16
  %6 = load ptr, ptr %5, align 8, !tbaa !64
  %7 = getelementptr inbounds nuw i8, ptr %6, i64 24
  %8 = lshr i32 %1, 4
  %9 = zext nneg i32 %8 to i64
  %10 = load ptr, ptr %7, align 8, !tbaa !163
  %11 = getelementptr inbounds nuw %"struct.Luau::CodeGen::IrInst", ptr %10, i64 %9
  %12 = getelementptr inbounds nuw i8, ptr %11, i64 41
  %13 = load i8, ptr %12, align 1, !tbaa !164, !range !97, !noundef !98
  %14 = trunc nuw i8 %13 to i1
  br i1 %14, label %19, label %15

15:                                               ; preds = %4
  %16 = getelementptr inbounds nuw i8, ptr %11, i64 42
  %17 = load i8, ptr %16, align 2, !tbaa !165, !range !97, !noundef !98
  %18 = trunc nuw i8 %17 to i1
  br i1 %18, label %19, label %_ZN4Luau7CodeGen3A6413IrLoweringA645regOpENS0_4IrOpE.exit

19:                                               ; preds = %15, %4
  %20 = getelementptr inbounds nuw i8, ptr %0, i64 32
  %21 = load ptr, ptr %0, align 8, !tbaa !63
  tail call void @_ZN4Luau7CodeGen3A6413IrRegAllocA6410restoreRegERNS1_18AssemblyBuilderA64ERNS0_6IrInstE(ptr noundef nonnull align 8 dereferenceable(325) %20, ptr noundef nonnull align 8 dereferenceable(176) %21, ptr noundef nonnull align 4 dereferenceable(43) %11)
  br label %_ZN4Luau7CodeGen3A6413IrLoweringA645regOpENS0_4IrOpE.exit

_ZN4Luau7CodeGen3A6413IrLoweringA645regOpENS0_4IrOpE.exit: ; preds = %15, %19
  %22 = getelementptr inbounds nuw i8, ptr %11, i64 39
  %.sroa.06.0.copyload.i = load i8, ptr %22, align 1, !tbaa !43
  br label %35

23:                                               ; preds = %2
  %24 = getelementptr inbounds nuw i8, ptr %0, i64 32
  %25 = tail call i8 @_ZN4Luau7CodeGen3A6413IrRegAllocA649allocTempENS1_7KindA64E(ptr noundef nonnull align 8 dereferenceable(325) %24, i8 noundef zeroext 1)
  %26 = load ptr, ptr %0, align 8, !tbaa !63
  %27 = getelementptr inbounds nuw i8, ptr %0, i64 16
  %28 = load ptr, ptr %27, align 8, !tbaa !64
  %29 = getelementptr inbounds nuw i8, ptr %28, i64 48
  %30 = lshr i32 %1, 4
  %31 = zext nneg i32 %30 to i64
  %32 = load ptr, ptr %29, align 8, !tbaa !65
  %33 = getelementptr inbounds nuw %"struct.Luau::CodeGen::IrConst", ptr %32, i64 %31, i32 1
  %34 = load i32, ptr %33, align 8, !tbaa !43
  tail call void @_ZN4Luau7CodeGen3A6418AssemblyBuilderA643movENS1_11RegisterA64Ei(ptr noundef nonnull align 8 dereferenceable(176) %26, i8 %25, i32 noundef %34)
  br label %35

35:                                               ; preds = %2, %23, %_ZN4Luau7CodeGen3A6413IrLoweringA645regOpENS0_4IrOpE.exit
  %.sroa.07.0 = phi i8 [ %.sroa.06.0.copyload.i, %_ZN4Luau7CodeGen3A6413IrLoweringA645regOpENS0_4IrOpE.exit ], [ %25, %23 ], [ 0, %2 ]
  ret i8 %.sroa.07.0
}